; Function Attrs: null_pointer_is_valid sspstrong uwtable
define internal fastcc void @parse_SLtoVLMappingTable(ptr noundef %0, ptr noundef %1, ptr noundef readonly captures(none) %2) unnamed_addr #0 {
  %.not = icmp eq ptr %0, null
  br i1 %.not, label %.loopexit, label %4

4:                                                ; preds = %3
  %5 = load i32, ptr %2, align 4
  %6 = load i32, ptr @hf_infiniband_smp_data, align 4
  %7 = tail call ptr @proto_tree_add_item(ptr noundef nonnull %0, i32 noundef %6, ptr noundef %1, i32 noundef %5, i32 noundef 64, i32 noundef 0)
  tail call void (ptr, ptr, ...) @proto_item_set_text(ptr noundef %7, ptr noundef nonnull @.str.1230, ptr noundef nonnull @.str.1478)
  %8 = load i32, ptr @ett_sltovlmapping, align 4
  %9 = tail call ptr @proto_item_add_subtree(ptr noundef %7, i32 noundef %8)
  br label %10

10:                                               ; preds = %4, %10
  %.022 = phi i32 [ 0, %4 ], [ %16, %10 ]
  %.01921 = phi i32 [ %5, %4 ], [ %15, %10 ]
  %11 = load i32, ptr @hf_infiniband_SLtoVLMappingTable_SLtoVL_HighBits, align 4
  %12 = tail call ptr @proto_tree_add_item(ptr noundef %9, i32 noundef %11, ptr noundef %1, i32 noundef %.01921, i32 noundef 1, i32 noundef 0)
  %13 = load i32, ptr @hf_infiniband_SLtoVLMappingTable_SLtoVL_LowBits, align 4
  %14 = tail call ptr @proto_tree_add_item(ptr noundef %9, i32 noundef %13, ptr noundef %1, i32 noundef %.01921, i32 noundef 1, i32 noundef 0)
  %15 = add i32 %.01921, 1
  tail call void (ptr, ptr, ...) @proto_item_append_text(ptr noundef %12, ptr noundef nonnull @.str.1398, i32 noundef %.022)
  %16 = add nuw nsw i32 %.022, 1
  tail call void (ptr, ptr, ...) @proto_item_append_text(ptr noundef %14, ptr noundef nonnull @.str.1398, i32 noundef %16)
  %exitcond.not = icmp eq i32 %16, 8
  br i1 %exitcond.not, label %.loopexit, label %10, !llvm.loop !15

.loopexit:                                        ; preds = %10, %3
  ret void
}